target datalayout = "e-m:e-p270:32:32-p271:32:32-p272:64:64-i64:64-i128:128-f80:128-n8:16:32:64-S128"
target triple = "x86_64-pc-linux-gnu"

%"class.cvc5::internal::theory::eq::EqualityEngine" = type { %"class.cvc5::context::ContextNotifyObj", %"class.cvc5::internal::EnvObj", ptr, ptr, ptr, %"class.cvc5::context::CDO", ptr, %"class.cvc5::internal::KindMap", %"class.cvc5::internal::KindMap", %"class.cvc5::internal::KindMap", %"class.std::unordered_map", %"class.std::unordered_map.2", %"class.std::vector", %"class.cvc5::context::CDO.23", %"class.std::vector.25", %"class.cvc5::context::CDO.23", %"class.std::vector.30", %"class.std::vector.35", %"class.cvc5::context::CDO.23", %"class.std::vector.40", %"class.std::vector.45", %"class.std::vector.50", %"class.std::vector.55", %"class.std::vector.60", %"class.std::vector.65", %"class.cvc5::context::CDO.23", %"class.std::vector.55", %"class.std::vector.70", %"class.std::vector.55", %"class.std::queue", %"class.std::vector.55", %"class.cvc5::context::CDO.23", %"class.std::vector.70", %"class.std::vector.70", %"struct.cvc5::internal::theory::eq::EqualityEngine::Statistics", %"class.std::deque.74", i8, %"class.cvc5::internal::NodeTemplate", i32, %"class.cvc5::internal::NodeTemplate", i32, i8, i8, ptr, i32, [4 x i8], %"class.cvc5::context::CDO.23", %"class.std::vector.80", %"class.cvc5::context::CDO.23", %"class.std::vector.55", %"class.std::unordered_map.85", %"class.std::vector.103", %"class.cvc5::context::CDO.108", %"class.std::vector.103", %"class.cvc5::context::CDO.108", %"class.cvc5::context::CDHashMap", %"class.std::__cxx11::basic_string" }
%"class.cvc5::context::ContextNotifyObj" = type { ptr, ptr, ptr }
%"class.cvc5::internal::EnvObj" = type { ptr, ptr }
%"class.cvc5::context::CDO" = type <{ %"class.cvc5::context::ContextObj", i8, [7 x i8] }>
%"class.cvc5::context::ContextObj" = type { ptr, ptr, ptr, ptr, ptr }
%"class.cvc5::internal::KindMap" = type { %"class.std::bitset" }
%"class.std::bitset" = type { %"struct.std::_Base_bitset" }
%"struct.std::_Base_bitset" = type { [6 x i64] }
%"class.std::unordered_map" = type { %"class.std::_Hashtable" }
%"class.std::_Hashtable" = type { ptr, i64, %"struct.std::__detail::_Hash_node_base", i64, %"struct.std::__detail::_Prime_rehash_policy", ptr }
%"struct.std::__detail::_Hash_node_base" = type { ptr }
%"struct.std::__detail::_Prime_rehash_policy" = type { float, i64 }
%"class.std::unordered_map.2" = type { %"class.std::_Hashtable.3" }
%"class.std::_Hashtable.3" = type { ptr, i64, %"struct.std::__detail::_Hash_node_base", i64, %"struct.std::__detail::_Prime_rehash_policy", ptr }
%"class.std::vector" = type { %"struct.std::_Vector_base" }
%"struct.std::_Vector_base" = type { %"struct.std::_Vector_base<cvc5::internal::theory::eq::FunctionApplication, std::allocator<cvc5::internal::theory::eq::FunctionApplication>>::_Vector_impl" }
%"struct.std::_Vector_base<cvc5::internal::theory::eq::FunctionApplication, std::allocator<cvc5::internal::theory::eq::FunctionApplication>>::_Vector_impl" = type { %"struct.std::_Vector_base<cvc5::internal::theory::eq::FunctionApplication, std::allocator<cvc5::internal::theory::eq::FunctionApplication>>::_Vector_impl_data" }
%"struct.std::_Vector_base<cvc5::internal::theory::eq::FunctionApplication, std::allocator<cvc5::internal::theory::eq::FunctionApplication>>::_Vector_impl_data" = type { ptr, ptr, ptr }
%"class.std::vector.25" = type { %"struct.std::_Vector_base.26" }
%"struct.std::_Vector_base.26" = type { %"struct.std::_Vector_base<cvc5::internal::NodeTemplate<true>, std::allocator<cvc5::internal::NodeTemplate<true>>>::_Vector_impl" }
%"struct.std::_Vector_base<cvc5::internal::NodeTemplate<true>, std::allocator<cvc5::internal::NodeTemplate<true>>>::_Vector_impl" = type { %"struct.std::_Vector_base<cvc5::internal::NodeTemplate<true>, std::allocator<cvc5::internal::NodeTemplate<true>>>::_Vector_impl_data" }
%"struct.std::_Vector_base<cvc5::internal::NodeTemplate<true>, std::allocator<cvc5::internal::NodeTemplate<true>>>::_Vector_impl_data" = type { ptr, ptr, ptr }
%"class.std::vector.30" = type { %"struct.std::_Vector_base.31" }
%"struct.std::_Vector_base.31" = type { %"struct.std::_Vector_base<cvc5::internal::theory::eq::FunctionApplicationPair, std::allocator<cvc5::internal::theory::eq::FunctionApplicationPair>>::_Vector_impl" }
%"struct.std::_Vector_base<cvc5::internal::theory::eq::FunctionApplicationPair, std::allocator<cvc5::internal::theory::eq::FunctionApplicationPair>>::_Vector_impl" = type { %"struct.std::_Vector_base<cvc5::internal::theory::eq::FunctionApplicationPair, std::allocator<cvc5::internal::theory::eq::FunctionApplicationPair>>::_Vector_impl_data" }
%"struct.std::_Vector_base<cvc5::internal::theory::eq::FunctionApplicationPair, std::allocator<cvc5::internal::theory::eq::FunctionApplicationPair>>::_Vector_impl_data" = type { ptr, ptr, ptr }
%"class.std::vector.35" = type { %"struct.std::_Vector_base.36" }
%"struct.std::_Vector_base.36" = type { %"struct.std::_Vector_base<cvc5::internal::theory::eq::EqualityNode, std::allocator<cvc5::internal::theory::eq::EqualityNode>>::_Vector_impl" }
%"struct.std::_Vector_base<cvc5::internal::theory::eq::EqualityNode, std::allocator<cvc5::internal::theory::eq::EqualityNode>>::_Vector_impl" = type { %"struct.std::_Vector_base<cvc5::internal::theory::eq::EqualityNode, std::allocator<cvc5::internal::theory::eq::EqualityNode>>::_Vector_impl_data" }
%"struct.std::_Vector_base<cvc5::internal::theory::eq::EqualityNode, std::allocator<cvc5::internal::theory::eq::EqualityNode>>::_Vector_impl_data" = type { ptr, ptr, ptr }
%"class.std::vector.40" = type { %"struct.std::_Vector_base.41" }
%"struct.std::_Vector_base.41" = type { %"struct.std::_Vector_base<cvc5::internal::theory::eq::UseListNode, std::allocator<cvc5::internal::theory::eq::UseListNode>>::_Vector_impl" }
%"struct.std::_Vector_base<cvc5::internal::theory::eq::UseListNode, std::allocator<cvc5::internal::theory::eq::UseListNode>>::_Vector_impl" = type { %"struct.std::_Vector_base<cvc5::internal::theory::eq::UseListNode, std::allocator<cvc5::internal::theory::eq::UseListNode>>::_Vector_impl_data" }
%"struct.std::_Vector_base<cvc5::internal::theory::eq::UseListNode, std::allocator<cvc5::internal::theory::eq::UseListNode>>::_Vector_impl_data" = type { ptr, ptr, ptr }
%"class.std::vector.45" = type { %"struct.std::_Vector_base.46" }
%"struct.std::_Vector_base.46" = type { %"struct.std::_Vector_base<cvc5::internal::theory::eq::EqualityEngine::Equality, std::allocator<cvc5::internal::theory::eq::EqualityEngine::Equality>>::_Vector_impl" }
%"struct.std::_Vector_base<cvc5::internal::theory::eq::EqualityEngine::Equality, std::allocator<cvc5::internal::theory::eq::EqualityEngine::Equality>>::_Vector_impl" = type { %"struct.std::_Vector_base<cvc5::internal::theory::eq::EqualityEngine::Equality, std::allocator<cvc5::internal::theory::eq::EqualityEngine::Equality>>::_Vector_impl_data" }
%"struct.std::_Vector_base<cvc5::internal::theory::eq::EqualityEngine::Equality, std::allocator<cvc5::internal::theory::eq::EqualityEngine::Equality>>::_Vector_impl_data" = type { ptr, ptr, ptr }
%"class.std::vector.50" = type { %"struct.std::_Vector_base.51" }
%"struct.std::_Vector_base.51" = type { %"struct.std::_Vector_base<cvc5::internal::theory::eq::EqualityEngine::EqualityEdge, std::allocator<cvc5::internal::theory::eq::EqualityEngine::EqualityEdge>>::_Vector_impl" }
%"struct.std::_Vector_base<cvc5::internal::theory::eq::EqualityEngine::EqualityEdge, std::allocator<cvc5::internal::theory::eq::EqualityEngine::EqualityEdge>>::_Vector_impl" = type { %"struct.std::_Vector_base<cvc5::internal::theory::eq::EqualityEngine::EqualityEdge, std::allocator<cvc5::internal::theory::eq::EqualityEngine::EqualityEdge>>::_Vector_impl_data" }
%"struct.std::_Vector_base<cvc5::internal::theory::eq::EqualityEngine::EqualityEdge, std::allocator<cvc5::internal::theory::eq::EqualityEngine::EqualityEdge>>::_Vector_impl_data" = type { ptr, ptr, ptr }
%"class.std::vector.60" = type { %"struct.std::_Vector_base.61" }
%"struct.std::_Vector_base.61" = type { %"struct.std::_Vector_base<cvc5::internal::theory::eq::EqualityEngine::Trigger, std::allocator<cvc5::internal::theory::eq::EqualityEngine::Trigger>>::_Vector_impl" }
%"struct.std::_Vector_base<cvc5::internal::theory::eq::EqualityEngine::Trigger, std::allocator<cvc5::internal::theory::eq::EqualityEngine::Trigger>>::_Vector_impl" = type { %"struct.std::_Vector_base<cvc5::internal::theory::eq::EqualityEngine::Trigger, std::allocator<cvc5::internal::theory::eq::EqualityEngine::Trigger>>::_Vector_impl_data" }
%"struct.std::_Vector_base<cvc5::internal::theory::eq::EqualityEngine::Trigger, std::allocator<cvc5::internal::theory::eq::EqualityEngine::Trigger>>::_Vector_impl_data" = type { ptr, ptr, ptr }
%"class.std::vector.65" = type { %"struct.std::_Vector_base.66" }
%"struct.std::_Vector_base.66" = type { %"struct.std::_Vector_base<cvc5::internal::theory::eq::TriggerInfo, std::allocator<cvc5::internal::theory::eq::TriggerInfo>>::_Vector_impl" }
%"struct.std::_Vector_base<cvc5::internal::theory::eq::TriggerInfo, std::allocator<cvc5::internal::theory::eq::TriggerInfo>>::_Vector_impl" = type { %"struct.std::_Vector_base<cvc5::internal::theory::eq::TriggerInfo, std::allocator<cvc5::internal::theory::eq::TriggerInfo>>::_Vector_impl_data" }
%"struct.std::_Vector_base<cvc5::internal::theory::eq::TriggerInfo, std::allocator<cvc5::internal::theory::eq::TriggerInfo>>::_Vector_impl_data" = type { ptr, ptr, ptr }
%"class.std::queue" = type { %"class.std::deque" }
%"class.std::deque" = type { %"class.std::_Deque_base" }
%"class.std::_Deque_base" = type { %"struct.std::_Deque_base<unsigned int, std::allocator<unsigned int>>::_Deque_impl" }
%"struct.std::_Deque_base<unsigned int, std::allocator<unsigned int>>::_Deque_impl" = type { %"struct.std::_Deque_base<unsigned int, std::allocator<unsigned int>>::_Deque_impl_data" }
%"struct.std::_Deque_base<unsigned int, std::allocator<unsigned int>>::_Deque_impl_data" = type { ptr, i64, %"struct.std::_Deque_iterator", %"struct.std::_Deque_iterator" }
%"struct.std::_Deque_iterator" = type { ptr, ptr, ptr, ptr }
%"class.std::vector.70" = type { %"struct.std::_Bvector_base" }
%"struct.std::_Bvector_base" = type { %"struct.std::_Bvector_base<std::allocator<bool>>::_Bvector_impl" }
%"struct.std::_Bvector_base<std::allocator<bool>>::_Bvector_impl" = type { %"struct.std::_Bvector_base<std::allocator<bool>>::_Bvector_impl_data" }
%"struct.std::_Bvector_base<std::allocator<bool>>::_Bvector_impl_data" = type { %"struct.std::_Bit_iterator", %"struct.std::_Bit_iterator", ptr }
%"struct.std::_Bit_iterator" = type { %"struct.std::_Bit_iterator_base.base", [4 x i8] }
%"struct.std::_Bit_iterator_base.base" = type <{ ptr, i32 }>
%"struct.cvc5::internal::theory::eq::EqualityEngine::Statistics" = type { %"class.cvc5::internal::IntStat", %"class.cvc5::internal::IntStat", %"class.cvc5::internal::IntStat", %"class.cvc5::internal::IntStat" }
%"class.cvc5::internal::IntStat" = type { %"class.cvc5::internal::ValueStat" }
%"class.cvc5::internal::ValueStat" = type { ptr }
%"class.std::deque.74" = type { %"class.std::_Deque_base.75" }
%"class.std::_Deque_base.75" = type { %"struct.std::_Deque_base<cvc5::internal::theory::eq::MergeCandidate, std::allocator<cvc5::internal::theory::eq::MergeCandidate>>::_Deque_impl" }
%"struct.std::_Deque_base<cvc5::internal::theory::eq::MergeCandidate, std::allocator<cvc5::internal::theory::eq::MergeCandidate>>::_Deque_impl" = type { %"struct.std::_Deque_base<cvc5::internal::theory::eq::MergeCandidate, std::allocator<cvc5::internal::theory::eq::MergeCandidate>>::_Deque_impl_data" }
%"struct.std::_Deque_base<cvc5::internal::theory::eq::MergeCandidate, std::allocator<cvc5::internal::theory::eq::MergeCandidate>>::_Deque_impl_data" = type { ptr, i64, %"struct.std::_Deque_iterator.79", %"struct.std::_Deque_iterator.79" }
%"struct.std::_Deque_iterator.79" = type { ptr, ptr, ptr, ptr }
%"class.cvc5::internal::NodeTemplate" = type { ptr }
%"class.std::vector.80" = type { %"struct.std::_Vector_base.81" }
%"struct.std::_Vector_base.81" = type { %"struct.std::_Vector_base<cvc5::internal::theory::eq::EqualityEngine::TriggerSetUpdate, std::allocator<cvc5::internal::theory::eq::EqualityEngine::TriggerSetUpdate>>::_Vector_impl" }
%"struct.std::_Vector_base<cvc5::internal::theory::eq::EqualityEngine::TriggerSetUpdate, std::allocator<cvc5::internal::theory::eq::EqualityEngine::TriggerSetUpdate>>::_Vector_impl" = type { %"struct.std::_Vector_base<cvc5::internal::theory::eq::EqualityEngine::TriggerSetUpdate, std::allocator<cvc5::internal::theory::eq::EqualityEngine::TriggerSetUpdate>>::_Vector_impl_data" }
%"struct.std::_Vector_base<cvc5::internal::theory::eq::EqualityEngine::TriggerSetUpdate, std::allocator<cvc5::internal::theory::eq::EqualityEngine::TriggerSetUpdate>>::_Vector_impl_data" = type { ptr, ptr, ptr }
%"class.cvc5::context::CDO.23" = type <{ %"class.cvc5::context::ContextObj", i32, [4 x i8] }>
%"class.std::vector.55" = type { %"struct.std::_Vector_base.56" }
%"struct.std::_Vector_base.56" = type { %"struct.std::_Vector_base<unsigned int, std::allocator<unsigned int>>::_Vector_impl" }
%"struct.std::_Vector_base<unsigned int, std::allocator<unsigned int>>::_Vector_impl" = type { %"struct.std::_Vector_base<unsigned int, std::allocator<unsigned int>>::_Vector_impl_data" }
%"struct.std::_Vector_base<unsigned int, std::allocator<unsigned int>>::_Vector_impl_data" = type { ptr, ptr, ptr }
%"class.std::unordered_map.85" = type { %"class.std::_Hashtable.86" }
%"class.std::_Hashtable.86" = type { ptr, i64, %"struct.std::__detail::_Hash_node_base", i64, %"struct.std::__detail::_Prime_rehash_policy", ptr }
%"class.std::vector.103" = type { %"struct.std::_Vector_base.104" }
%"struct.std::_Vector_base.104" = type { %"struct.std::_Vector_base<std::pair<unsigned int, unsigned int>, std::allocator<std::pair<unsigned int, unsigned int>>>::_Vector_impl" }
%"struct.std::_Vector_base<std::pair<unsigned int, unsigned int>, std::allocator<std::pair<unsigned int, unsigned int>>>::_Vector_impl" = type { %"struct.std::_Vector_base<std::pair<unsigned int, unsigned int>, std::allocator<std::pair<unsigned int, unsigned int>>>::_Vector_impl_data" }
%"struct.std::_Vector_base<std::pair<unsigned int, unsigned int>, std::allocator<std::pair<unsigned int, unsigned int>>>::_Vector_impl_data" = type { ptr, ptr, ptr }
%"class.cvc5::context::CDO.108" = type { %"class.cvc5::context::ContextObj", i64 }
%"class.cvc5::context::CDHashMap" = type { %"class.cvc5::context::ContextObj", %"class.std::unordered_map.109", ptr, ptr }
%"class.std::unordered_map.109" = type { %"class.std::_Hashtable.110" }
%"class.std::_Hashtable.110" = type { ptr, i64, %"struct.std::__detail::_Hash_node_base", i64, %"struct.std::__detail::_Prime_rehash_policy", ptr }
%"class.std::__cxx11::basic_string" = type { %"struct.std::__cxx11::basic_string<char>::_Alloc_hider", i64, %union.anon }
%"struct.std::__cxx11::basic_string<char>::_Alloc_hider" = type { ptr }
%union.anon = type { i64, [8 x i8] }
%"class.cvc5::internal::theory::eq::EqClassIterator" = type { ptr, i32, i32 }

; Function Attrs: mustprogress uwtable
define linkonce_odr hidden void @_ZN4cvc58internal4expr9NodeValue3incEv(ptr noundef nonnull align 8 dereferenceable(24) %0) #5 comdat align 2 {
  %2 = alloca ptr, align 8
  store ptr %0, ptr %2, align 8, !tbaa !50
  %3 = load ptr, ptr %2, align 8
  %4 = load i64, ptr %3, align 8
  %5 = lshr i64 %4, 40
  %6 = and i64 %5, 1048575
  %7 = trunc i64 %6 to i32
  %8 = icmp ult i32 %7, 1048574
  %9 = zext i1 %8 to i64
  %10 = call i64 @llvm.expect.i64(i64 %9, i64 1)
  %11 = icmp ne i64 %10, 0
  br i1 %11, label %12, label %24

12:                                               ; preds = %1
  %13 = load i64, ptr %3, align 8
  %14 = lshr i64 %13, 40
  %15 = and i64 %14, 1048575
  %16 = trunc i64 %15 to i32
  %17 = add i32 %16, 1
  %18 = zext i32 %17 to i64
  %19 = load i64, ptr %3, align 8
  %20 = and i64 %18, 1048575
  %21 = shl i64 %20, 40
  %22 = and i64 %19, -1152920405095219201
  %23 = or i64 %22, %21
  store i64 %23, ptr %3, align 8
  br label %46

24:                                               ; preds = %1
  %25 = load i64, ptr %3, align 8
  %26 = lshr i64 %25, 40
  %27 = and i64 %26, 1048575
  %28 = trunc i64 %27 to i32
  %29 = icmp eq i32 %28, 1048574
  %30 = zext i1 %29 to i64
  %31 = call i64 @llvm.expect.i64(i64 %30, i64 0)
  %32 = icmp ne i64 %31, 0
  br i1 %32, label %33, label %45

33:                                               ; preds = %24
  %34 = load i64, ptr %3, align 8
  %35 = lshr i64 %34, 40
  %36 = and i64 %35, 1048575
  %37 = trunc i64 %36 to i32
  %38 = add i32 %37, 1
  %39 = zext i32 %38 to i64
  %40 = load i64, ptr %3, align 8
  %41 = and i64 %39, 1048575
  %42 = shl i64 %41, 40
  %43 = and i64 %40, -1152920405095219201
  %44 = or i64 %43, %42
  store i64 %44, ptr %3, align 8
  call void @_ZN4cvc58internal4expr9NodeValue20markRefCountMaxedOutEv(ptr noundef nonnull align 8 dereferenceable(24) %3)
  br label %45

45:                                               ; preds = %33, %24
  br label %46

46:                                               ; preds = %45, %12
  ret void
}

; Function Attrs: mustprogress uwtable
define linkonce_odr hidden void @_ZN4cvc58internal12NodeTemplateILb1EEC2ERKS2_(ptr noundef nonnull align 8 dereferenceable(8) %0, ptr noundef nonnull align 8 dereferenceable(8) %1) unnamed_addr #5 comdat align 2 {
  %3 = alloca ptr, align 8
  %4 = alloca ptr, align 8
  store ptr %0, ptr %3, align 8, !tbaa !30
  store ptr %1, ptr %4, align 8, !tbaa !30
  %5 = load ptr, ptr %3, align 8
  %6 = load ptr, ptr %4, align 8, !tbaa !30
  %7 = getelementptr inbounds nuw %"class.cvc5::internal::NodeTemplate", ptr %6, i32 0, i32 0
  %8 = load ptr, ptr %7, align 8, !tbaa !31
  %9 = getelementptr inbounds nuw %"class.cvc5::internal::NodeTemplate", ptr %5, i32 0, i32 0
  store ptr %8, ptr %9, align 8, !tbaa !31
  %10 = getelementptr inbounds nuw %"class.cvc5::internal::NodeTemplate", ptr %5, i32 0, i32 0
  %11 = load ptr, ptr %10, align 8, !tbaa !31
  call void @_ZN4cvc58internal4expr9NodeValue3incEv(ptr noundef nonnull align 8 dereferenceable(24) %11)
  ret void
}

; Function Attrs: mustprogress nounwind uwtable
define linkonce_odr hidden noundef nonnull align 8 dereferenceable(8) ptr @_ZNKSt6vectorIN4cvc58internal12NodeTemplateILb1EEESaIS3_EEixEm(ptr noundef nonnull align 8 dereferenceable(24) %0, i64 noundef %1) #4 comdat align 2 {
  %3 = alloca ptr, align 8
  %4 = alloca i64, align 8
  store ptr %0, ptr %3, align 8, !tbaa !25
  store i64 %1, ptr %4, align 8, !tbaa !20
  %5 = load ptr, ptr %3, align 8
  %6 = getelementptr inbounds nuw %"struct.std::_Vector_base.26", ptr %5, i32 0, i32 0
  %7 = getelementptr inbounds nuw %"struct.std::_Vector_base<cvc5::internal::NodeTemplate<true>, std::allocator<cvc5::internal::NodeTemplate<true>>>::_Vector_impl_data", ptr %6, i32 0, i32 0
  %8 = load ptr, ptr %7, align 8, !tbaa !27
  %9 = load i64, ptr %4, align 8, !tbaa !20
  %10 = getelementptr inbounds nuw %"class.cvc5::internal::NodeTemplate", ptr %8, i64 %9
  ret ptr %10
}

; Function Attrs: mustprogress uwtable
define hidden void @_ZNK4cvc58internal6theory2eq15EqClassIteratordeEv(ptr dead_on_unwind noalias writable sret(%"class.cvc5::internal::NodeTemplate") align 8 %0, ptr noundef nonnull align 8 dereferenceable(16) %1) #5 align 2 {
  %3 = alloca ptr, align 8
  %4 = alloca ptr, align 8
  store ptr %0, ptr %3, align 8
  store ptr %1, ptr %4, align 8, !tbaa !37
  %5 = load ptr, ptr %4, align 8
  %6 = getelementptr inbounds nuw %"class.cvc5::internal::theory::eq::EqClassIterator", ptr %5, i32 0, i32 0
  %7 = load ptr, ptr %6, align 8, !tbaa !39
  %8 = getelementptr inbounds nuw %"class.cvc5::internal::theory::eq::EqualityEngine", ptr %7, i32 0, i32 14
  %9 = getelementptr inbounds nuw %"class.cvc5::internal::theory::eq::EqClassIterator", ptr %5, i32 0, i32 2
  %10 = load i32, ptr %9, align 4, !tbaa !42
  %11 = zext i32 %10 to i64
  %12 = call noundef nonnull align 8 dereferenceable(8) ptr @_ZNKSt6vectorIN4cvc58internal12NodeTemplateILb1EEESaIS3_EEixEm(ptr noundef nonnull align 8 dereferenceable(24) %8, i64 noundef %11) #3
  call void @_ZN4cvc58internal12NodeTemplateILb1EEC2ERKS2_(ptr noundef nonnull align 8 dereferenceable(8) %0, ptr noundef nonnull align 8 dereferenceable(8) %12)
  ret void
}